; Function Attrs: nounwind uwtable
define dso_local void @jq_set_attrs(ptr noundef captures(none) %0, i64 %1, ptr %2) local_unnamed_addr #0 {
  %4 = getelementptr inbounds nuw i8, ptr %0, i64 176
  %5 = load i64, ptr %4, align 8
  %6 = getelementptr inbounds nuw i8, ptr %0, i64 184
  %7 = load ptr, ptr %6, align 8
  tail call void @jv_free(i64 %5, ptr %7) #13
  store i64 %1, ptr %4, align 8
  store ptr %2, ptr %6, align 8, !tbaa !19
  ret void
}